; Function Attrs: nounwind uwtable
define internal fastcc range(i32 0, 2) i32 @read_var_sized(ptr noundef %0, ptr noundef nonnull writeonly captures(none) %1, ptr noundef writeonly %2) unnamed_addr #0 {
  %4 = alloca i64, align 8
  %5 = alloca i64, align 8
  %.not = icmp eq ptr %2, null
  br i1 %.not, label %18, label %6

6:                                                ; preds = %3
  call void @llvm.lifetime.start.p0(i64 8, ptr nonnull %5) #15
  store i64 -1, ptr %5, align 8, !tbaa !29
  %7 = call ptr @__archive_read_ahead(ptr noundef %0, i64 noundef 8, ptr noundef nonnull %5) #15
  %.not35.i = icmp eq ptr %7, null
  call void @llvm.lifetime.end.p0(i64 8, ptr nonnull %5) #15
  br i1 %.not35.i, label %read_var.exit.thread.thread27, label %.preheader.i

.preheader.i:                                     ; preds = %6, %16
  %.02340.i = phi i64 [ %15, %16 ], [ 0, %6 ]
  %.02439.i = phi i64 [ %17, %16 ], [ 0, %6 ]
  %.02538.i = phi i64 [ %13, %16 ], [ 0, %6 ]
  %8 = getelementptr inbounds nuw i8, ptr %7, i64 %.02340.i
  %9 = load i8, ptr %8, align 1, !tbaa !26
  %10 = and i8 %9, 127
  %11 = zext nneg i8 %10 to i64
  %12 = shl i64 %11, %.02439.i
  %13 = add i64 %12, %.02538.i
  %14 = icmp sgt i8 %9, -1
  %15 = add nuw nsw i64 %.02340.i, 1
  br i1 %14, label %read_var.exit, label %16

16:                                               ; preds = %.preheader.i
  %17 = add nuw nsw i64 %.02439.i, 7
  %exitcond.not.i = icmp eq i64 %15, 8
  br i1 %exitcond.not.i, label %read_var.exit, label %.preheader.i, !llvm.loop !77

18:                                               ; preds = %3
  call void @llvm.lifetime.start.p0(i64 8, ptr nonnull %4) #15
  store i64 -1, ptr %4, align 8, !tbaa !29
  %19 = call ptr @__archive_read_ahead(ptr noundef %0, i64 noundef 8, ptr noundef nonnull %4) #15
  %.not35.i11 = icmp eq ptr %19, null
  call void @llvm.lifetime.end.p0(i64 8, ptr nonnull %4) #15
  br i1 %.not35.i11, label %read_var.exit.thread.thread, label %.preheader.i12

.preheader.i12:                                   ; preds = %18, %31
  %.02340.i13 = phi i64 [ %27, %31 ], [ 0, %18 ]
  %.02439.i14 = phi i64 [ %32, %31 ], [ 0, %18 ]
  %.02538.i15 = phi i64 [ %25, %31 ], [ 0, %18 ]
  %20 = getelementptr inbounds nuw i8, ptr %19, i64 %.02340.i13
  %21 = load i8, ptr %20, align 1, !tbaa !26
  %22 = and i8 %21, 127
  %23 = zext nneg i8 %22 to i64
  %24 = shl i64 %23, %.02439.i14
  %25 = add i64 %24, %.02538.i15
  %26 = icmp sgt i8 %21, -1
  %27 = add nuw nsw i64 %.02340.i13, 1
  br i1 %26, label %28, label %31

28:                                               ; preds = %.preheader.i12
  %29 = call i64 @__archive_read_consume(ptr noundef %0, i64 noundef %27) #15
  %30 = icmp eq i64 %27, %29
  br i1 %30, label %read_var.exit, label %read_var.exit.thread

31:                                               ; preds = %.preheader.i12
  %32 = add nuw nsw i64 %.02439.i14, 7
  %exitcond.not.i16 = icmp eq i64 %27, 8
  br i1 %exitcond.not.i16, label %33, label %.preheader.i12, !llvm.loop !77

33:                                               ; preds = %31
  %34 = call i64 @__archive_read_consume(ptr noundef %0, i64 noundef 9) #15
  %35 = icmp eq i64 %34, 9
  br i1 %35, label %read_var.exit, label %read_var.exit.thread

read_var.exit:                                    ; preds = %16, %.preheader.i, %33, %28
  %.020 = phi i64 [ %25, %28 ], [ %25, %33 ], [ %13, %.preheader.i ], [ %13, %16 ]
  %.0 = phi i64 [ 0, %28 ], [ 0, %33 ], [ 9, %16 ], [ %15, %.preheader.i ]
  store i64 %.020, ptr %1, align 8, !tbaa !29
  br label %read_var.exit.thread

read_var.exit.thread:                             ; preds = %33, %28, %read_var.exit
  %36 = phi i32 [ 1, %read_var.exit ], [ 0, %28 ], [ 0, %33 ]
  %.025 = phi i64 [ %.0, %read_var.exit ], [ 0, %28 ], [ 0, %33 ]
  br i1 %.not, label %read_var.exit.thread.thread, label %read_var.exit.thread.thread27

read_var.exit.thread.thread27:                    ; preds = %6, %read_var.exit.thread
  %.02529 = phi i64 [ %.025, %read_var.exit.thread ], [ 0, %6 ]
  %37 = phi i32 [ %36, %read_var.exit.thread ], [ 0, %6 ]
  store i64 %.02529, ptr %2, align 8, !tbaa !29
  br label %read_var.exit.thread.thread

read_var.exit.thread.thread:                      ; preds = %18, %read_var.exit.thread.thread27, %read_var.exit.thread
  %38 = phi i32 [ %37, %read_var.exit.thread.thread27 ], [ %36, %read_var.exit.thread ], [ 0, %18 ]
  ret i32 %38
}